target datalayout = "e-m:e-p270:32:32-p271:32:32-p272:64:64-i64:64-i128:128-f80:128-n8:16:32:64-S128"
target triple = "x86_64-pc-linux-gnu"

@g_ascii_table = external constant ptr, align 8
@.str.33 = private unnamed_addr constant [31 x i8] c"invalid char pos=%d value=%02x\00", align 1

; Function Attrs: null_pointer_is_valid sspstrong uwtable
define zeroext i1 @uat_fld_chk_str_isxdigit(ptr noundef %0, ptr noundef %1, i32 noundef %2, ptr noundef %3, ptr noundef %4, ptr noundef %5) #0 {
  %7 = alloca i1, align 1
  %8 = alloca ptr, align 8
  %9 = alloca ptr, align 8
  %10 = alloca i32, align 4
  %11 = alloca ptr, align 8
  %12 = alloca ptr, align 8
  %13 = alloca ptr, align 8
  %14 = alloca i32, align 4
  %15 = alloca i8, align 1
  %16 = alloca i32, align 4
  store ptr %0, ptr %8, align 8
  store ptr %1, ptr %9, align 8
  store i32 %2, ptr %10, align 4
  store ptr %3, ptr %11, align 8
  store ptr %4, ptr %12, align 8
  store ptr %5, ptr %13, align 8
  call void @llvm.lifetime.start.p0(i64 4, ptr %14) #13
  store i32 0, ptr %14, align 4
  br label %17

17:                                               ; preds = %45, %6
  %18 = load i32, ptr %14, align 4
  %19 = load i32, ptr %10, align 4
  %20 = icmp ult i32 %18, %19
  br i1 %20, label %21, label %48

21:                                               ; preds = %17
  call void @llvm.lifetime.start.p0(i64 1, ptr %15) #13
  %22 = load ptr, ptr %9, align 8
  %23 = load i32, ptr %14, align 4
  %24 = zext i32 %23 to i64
  %25 = getelementptr i8, ptr %22, i64 %24
  %26 = load i8, ptr %25, align 1
  store i8 %26, ptr %15, align 1
  %27 = load ptr, ptr @g_ascii_table, align 8
  %28 = load i8, ptr %15, align 1
  %29 = zext i8 %28 to i64
  %30 = getelementptr i16, ptr %27, i64 %29
  %31 = load i16, ptr %30, align 2
  %32 = zext i16 %31 to i32
  %33 = and i32 %32, 1024
  %34 = icmp ne i32 %33, 0
  br i1 %34, label %41, label %35

35:                                               ; preds = %21
  %36 = load i32, ptr %14, align 4
  %37 = load i8, ptr %15, align 1
  %38 = zext i8 %37 to i32
  %39 = call noalias ptr (ptr, ptr, ...) @wmem_strdup_printf(ptr noundef null, ptr noundef @.str.33, i32 noundef %36, i32 noundef %38)
  %40 = load ptr, ptr %13, align 8
  store ptr %39, ptr %40, align 8
  store i1 false, ptr %7, align 1
  store i32 1, ptr %16, align 4
  br label %42

41:                                               ; preds = %21
  store i32 0, ptr %16, align 4
  br label %42

42:                                               ; preds = %41, %35
  call void @llvm.lifetime.end.p0(i64 1, ptr %15) #13
  %43 = load i32, ptr %16, align 4
  switch i32 %43, label %50 [
    i32 0, label %44
  ]

44:                                               ; preds = %42
  br label %45

45:                                               ; preds = %44
  %46 = load i32, ptr %14, align 4
  %47 = add i32 %46, 1
  store i32 %47, ptr %14, align 4
  br label %17, !llvm.loop !40

48:                                               ; preds = %17
  %49 = load ptr, ptr %13, align 8
  store ptr null, ptr %49, align 8
  store i1 true, ptr %7, align 1
  store i32 1, ptr %16, align 4
  br label %50

50:                                               ; preds = %48, %42
  call void @llvm.lifetime.end.p0(i64 4, ptr %14) #13
  %51 = load i1, ptr %7, align 1
  ret i1 %51
}